###############################################################################
#                                                                             #
# IAR C/C++ Compiler V8.10.1.10194/W32 for 8051         17/Apr/2015  19:05:09 #
# Copyright 2004-2011 IAR Systems AB.                                         #
#                                                                             #
#    Core               =  plain                                              #
#    Code model         =  banked                                             #
#    Data model         =  large                                              #
#    Calling convention =  xdata reentrant                                    #
#    Constant location  =  data_rom                                           #
#    Dptr setup         =  1,16                                               #
#    Source file        =  D:\sys\sys\ZStack-CC2530-2.3.0-1.4.0\Projects\zsta #
#                          ck\Samples\SampleApp\Source\Enddevice.c            #
#    Command line       =  -f D:\sys\sys\ZStack-CC2530-2.3.0-1.4.0\Projects\z #
#                          stack\Samples\SampleApp\CC2530DB\..\..\..\Tools\CC #
#                          2530DB\f8wEndev.cfg (-DCPU32MHZ                    #
#                          -DROOT=__near_func -DBLINK_LEDS) -f                #
#                          D:\sys\sys\ZStack-CC2530-2.3.0-1.4.0\Projects\zsta #
#                          ck\Samples\SampleApp\CC2530DB\..\..\..\Tools\CC253 #
#                          0DB\f8wConfig.cfg (-DSECURE=0                      #
#                          -DZG_SECURE_DYNAMIC=0 -DREFLECTOR                  #
#                          -DDEFAULT_CHANLIST=0x00000800                      #
#                          -DZDAPP_CONFIG_PAN_ID=0xFFF1                       #
#                          -DNWK_START_DELAY=100 -DEXTENDED_JOINING_RANDOM_MA #
#                          SK=0x007F -DBEACON_REQUEST_DELAY=100               #
#                          -DBEACON_REQ_DELAY_MASK=0x00FF                     #
#                          -DROUTE_EXPIRY_TIME=30 -DAPSC_ACK_WAIT_DURATION_PO #
#                          LLED=3000 -DNWK_INDIRECT_MSG_TIMEOUT=7             #
#                          -DMAX_RREQ_ENTRIES=8 -DAPSC_MAX_FRAME_RETRIES=3    #
#                          -DNWK_MAX_DATA_RETRIES=2                           #
#                          -DMAX_POLL_FAILURE_RETRIES=2 -DMAX_BCAST=9         #
#                          -DAPS_MAX_GROUPS=16 -DMAX_RTG_ENTRIES=40           #
#                          -DNWK_MAX_BINDING_ENTRIES=4                        #
#                          -DMAX_BINDING_CLUSTER_IDS=4 "-DDEFAULT_KEY={0x01,  #
#                          0x03, 0x05, 0x07, 0x09, 0x0B, 0x0D, 0x0F, 0x00,    #
#                          0x02, 0x04, 0x06, 0x08, 0x0A, 0x0C, 0x0D}"         #
#                          -DMAC_MAX_FRAME_SIZE=116 "-DCONST=const __code"    #
#                          -DGENERIC=__generic -DRFD_RCVC_ALWAYS_ON=FALSE     #
#                          -DPOLL_RATE=1000 -DQUEUED_POLL_RATE=100            #
#                          -DRESPONSE_POLL_RATE=100) -DREJOIN_POLL_RATE=440   #
#                          D:\sys\sys\ZStack-CC2530-2.3.0-1.4.0\Projects\zsta #
#                          ck\Samples\SampleApp\Source\Enddevice.c -D         #
#                          ZIGBEEPRO -D NWK_AUTO_POLL -D ZTOOL_P1 -D          #
#                          xMT_TASK -D xMT_SYS_FUNC -D xMT_ZDO_FUNC -lC       #
#                          D:\sys\sys\ZStack-CC2530-2.3.0-1.4.0\Projects\zsta #
#                          ck\Samples\SampleApp\CC2530DB\EndDeviceEB-Pro\List #
#                          \ -lA D:\sys\sys\ZStack-CC2530-2.3.0-1.4.0\Project #
#                          s\zstack\Samples\SampleApp\CC2530DB\EndDeviceEB-Pr #
#                          o\List\ --diag_suppress Pe001,Pa010 -o             #
#                          D:\sys\sys\ZStack-CC2530-2.3.0-1.4.0\Projects\zsta #
#                          ck\Samples\SampleApp\CC2530DB\EndDeviceEB-Pro\Obj\ #
#                           -e --debug --core=plain --dptr=16,1               #
#                          --data_model=large --code_model=banked             #
#                          --calling_convention=xdata_reentrant               #
#                          --place_constants=data_rom --nr_virtual_regs 16    #
#                          -I D:\sys\sys\ZStack-CC2530-2.3.0-1.4.0\Projects\z #
#                          stack\Samples\SampleApp\CC2530DB\ -I               #
#                          D:\sys\sys\ZStack-CC2530-2.3.0-1.4.0\Projects\zsta #
#                          ck\Samples\SampleApp\CC2530DB\..\SOURCE\ -I        #
#                          D:\sys\sys\ZStack-CC2530-2.3.0-1.4.0\Projects\zsta #
#                          ck\Samples\SampleApp\CC2530DB\..\..\..\ZMAIN\TI253 #
#                          0DB\ -I D:\sys\sys\ZStack-CC2530-2.3.0-1.4.0\Proje #
#                          cts\zstack\Samples\SampleApp\CC2530DB\..\..\..\..\ #
#                          ..\COMPONENTS\MT\ -I D:\sys\sys\ZStack-CC2530-2.3. #
#                          0-1.4.0\Projects\zstack\Samples\SampleApp\CC2530DB #
#                          \..\..\..\..\..\COMPONENTS\HAL\INCLUDE\ -I         #
#                          D:\sys\sys\ZStack-CC2530-2.3.0-1.4.0\Projects\zsta #
#                          ck\Samples\SampleApp\CC2530DB\..\..\..\..\..\COMPO #
#                          NENTS\HAL\TARGET\CC2530EB\ -I                      #
#                          D:\sys\sys\ZStack-CC2530-2.3.0-1.4.0\Projects\zsta #
#                          ck\Samples\SampleApp\CC2530DB\..\..\..\..\..\COMPO #
#                          NENTS\OSAL\MCU\CCSOC\ -I                           #
#                          D:\sys\sys\ZStack-CC2530-2.3.0-1.4.0\Projects\zsta #
#                          ck\Samples\SampleApp\CC2530DB\..\..\..\..\..\COMPO #
#                          NENTS\OSAL\INCLUDE\ -I D:\sys\sys\ZStack-CC2530-2. #
#                          3.0-1.4.0\Projects\zstack\Samples\SampleApp\CC2530 #
#                          DB\..\..\..\..\..\COMPONENTS\STACK\AF\ -I          #
#                          D:\sys\sys\ZStack-CC2530-2.3.0-1.4.0\Projects\zsta #
#                          ck\Samples\SampleApp\CC2530DB\..\..\..\..\..\COMPO #
#                          NENTS\STACK\NWK\ -I D:\sys\sys\ZStack-CC2530-2.3.0 #
#                          -1.4.0\Projects\zstack\Samples\SampleApp\CC2530DB\ #
#                          ..\..\..\..\..\COMPONENTS\STACK\SEC\ -I            #
#                          D:\sys\sys\ZStack-CC2530-2.3.0-1.4.0\Projects\zsta #
#                          ck\Samples\SampleApp\CC2530DB\..\..\..\..\..\COMPO #
#                          NENTS\STACK\SAPI\ -I D:\sys\sys\ZStack-CC2530-2.3. #
#                          0-1.4.0\Projects\zstack\Samples\SampleApp\CC2530DB #
#                          \..\..\..\..\..\COMPONENTS\STACK\SYS\ -I           #
#                          D:\sys\sys\ZStack-CC2530-2.3.0-1.4.0\Projects\zsta #
#                          ck\Samples\SampleApp\CC2530DB\..\..\..\..\..\COMPO #
#                          NENTS\STACK\ZDO\ -I D:\sys\sys\ZStack-CC2530-2.3.0 #
#                          -1.4.0\Projects\zstack\Samples\SampleApp\CC2530DB\ #
#                          ..\..\..\..\..\COMPONENTS\ZMAC\F8W\ -I             #
#                          D:\sys\sys\ZStack-CC2530-2.3.0-1.4.0\Projects\zsta #
#                          ck\Samples\SampleApp\CC2530DB\..\..\..\..\..\COMPO #
#                          NENTS\ZMAC\ -I D:\sys\sys\ZStack-CC2530-2.3.0-1.4. #
#                          0\Projects\zstack\Samples\SampleApp\CC2530DB\..\.. #
#                          \..\..\..\COMPONENTS\SERVICES\SADDR\ -I            #
#                          D:\sys\sys\ZStack-CC2530-2.3.0-1.4.0\Projects\zsta #
#                          ck\Samples\SampleApp\CC2530DB\..\..\..\..\..\COMPO #
#                          NENTS\SERVICES\SDATA\ -I                           #
#                          D:\sys\sys\ZStack-CC2530-2.3.0-1.4.0\Projects\zsta #
#                          ck\Samples\SampleApp\CC2530DB\..\..\..\..\..\COMPO #
#                          NENTS\MAC\INCLUDE\ -I D:\sys\sys\ZStack-CC2530-2.3 #
#                          .0-1.4.0\Projects\zstack\Samples\SampleApp\CC2530D #
#                          B\..\..\..\..\..\COMPONENTS\MAC\HIGH_LEVEL\ -I     #
#                          D:\sys\sys\ZStack-CC2530-2.3.0-1.4.0\Projects\zsta #
#                          ck\Samples\SampleApp\CC2530DB\..\..\..\..\..\COMPO #
#                          NENTS\MAC\LOW_LEVEL\srf04\ -I                      #
#                          D:\sys\sys\ZStack-CC2530-2.3.0-1.4.0\Projects\zsta #
#                          ck\Samples\SampleApp\CC2530DB\..\..\..\..\..\COMPO #
#                          NENTS\MAC\LOW_LEVEL\srf04\SINGLE_CHIP\ -Ohz        #
#    List file          =  D:\sys\sys\ZStack-CC2530-2.3.0-1.4.0\Projects\zsta #
#                          ck\Samples\SampleApp\CC2530DB\EndDeviceEB-Pro\List #
#                          \Enddevice.lst                                     #
#    Object file        =  D:\sys\sys\ZStack-CC2530-2.3.0-1.4.0\Projects\zsta #
#                          ck\Samples\SampleApp\CC2530DB\EndDeviceEB-Pro\Obj\ #
#                          Enddevice.r51                                      #
#                                                                             #
#                                                                             #
###############################################################################

D:\sys\sys\ZStack-CC2530-2.3.0-1.4.0\Projects\zstack\Samples\SampleApp\Source\Enddevice.c
      1          #include "OSAL.h"
      2          #include "ZGlobals.h"
      3          #include "AF.h"
      4          #include "ZDApp.h"
      5          #include "ZDObject.h"
      6          #include "ZDProfile.h"
      7          #include <string.h>
      8          #include "DebugTrace.h"
      9          
     10          #include "Coordinator.h"
     11          #include "SampleAppHw.h"
     12          
     13          #include "hal_lcd.h"

   \                                 In  segment SFR_AN, at 0xf3
   \   unsigned char volatile __sfr P0SEL
   \                     P0SEL:
   \   000000                DS 1
     14          #include "hal_led.h"
     15          #include "hal_key.h"
     16          #include "hal_uart.h"
     17          
     18          #include "DHT11.h"
     19          #include "MQ.h"

  typedef unsigned char uchar;
                        ^
"D:\sys\sys\ZStack-CC2530-2.3.0-1.4.0\Projects\zstack\Samples\SampleApp\Source\MQ.h",8  Warning[Pe301]: 
          typedef name has already been declared (with same type)

  typedef unsigned int  uint;
                        ^
"D:\sys\sys\ZStack-CC2530-2.3.0-1.4.0\Projects\zstack\Samples\SampleApp\Source\MQ.h",9  Warning[Pe301]: 
          typedef name has already been declared (with same type)
     20          

   \                                 In  segment XDATA_ROM_C, align 1
     21          const cId_t SampleApp_ClusterList[SAMPLEAPP_MAX_CLUSTERS] =
   \                     SampleApp_ClusterList:
   \   000000   0100         DW 1
     22          {
     23            SAMPLEAPP_PERIODIC_CLUSTERID   //1
     24          };
     25          

   \                                 In  segment XDATA_ROM_C, align 1
     26          const SimpleDescriptionFormat_t SampleApp_SimpleDesc =
   \                     SampleApp_SimpleDesc:
   \   000000   14           DB 20
   \   000001   080F         DW 3848
   \   000003   0100         DW 1
   \   000005   00           DB 0
   \   000006   00           DB 0
   \   000007   0000         DW 0H
   \   000009   01           DB 1
   \   00000A   ....         DW SampleApp_ClusterList
     27          {
     28            SAMPLEAPP_ENDPOINT,              //  int Endpoint;
     29            SAMPLEAPP_PROFID,                //  uint16 AppProfId[2];
     30            SAMPLEAPP_DEVICEID,              //  uint16 AppDeviceId[2];
     31            SAMPLEAPP_DEVICE_VERSION,        //  int   AppDevVer:4;
     32            SAMPLEAPP_FLAGS,                 //  int   AppFlags:4;
     33            0,                               //  uint8  AppNumInClusters;
     34            (cId_t *)NULL,                    //  uint8 *pAppInClusterList;
     35            SAMPLEAPP_MAX_CLUSTERS,          //  uint8  AppNumInClusters;
     36            (cId_t *)SampleApp_ClusterList  //  uint8 *pAppInClusterList;
     37          };
     38          

   \                                 In  segment XDATA_Z, align 1, keep-with-next
     39          endPointDesc_t SampleApp_epDesc;
   \                     SampleApp_epDesc:
   \   000000                DS 6
   \   000006                REQUIRE __INIT_XDATA_Z

   \                                 In  segment XDATA_Z, align 1, keep-with-next
     40          uint8 SampleApp_TaskID;
   \                     SampleApp_TaskID:
   \   000000                DS 1
   \   000001                REQUIRE __INIT_XDATA_Z

   \                                 In  segment XDATA_Z, align 1, keep-with-next
     41          uint8 SampleApp_TransID;
   \                     SampleApp_TransID:
   \   000000                DS 1
   \   000001                REQUIRE __INIT_XDATA_Z

   \                                 In  segment XDATA_Z, align 1, keep-with-next
     42          devStates_t SampleApp_NwkState;
   \                     SampleApp_NwkState:
   \   000000                DS 1
   \   000001                REQUIRE __INIT_XDATA_Z

   \                                 In  segment XDATA_Z, align 1, keep-with-next
     43          afAddrType_t SampleApp_P2P_DstAddr;
   \                     SampleApp_P2P_DstAddr:
   \   000000                DS 12
   \   00000C                REQUIRE __INIT_XDATA_Z
     44          
     45          void SampleApp_MessageMSGCB( afIncomingMSGPacket_t *pckt );
     46          void SampleApp_Send_The_Message(void);
     47          void SampleApp_Send_The_Error_Message(void);
     48          void To_String(uint8 *dest, char *src, uint8 length);
     49          

   \                                 In  segment BANKED_CODE, align 1, keep-with-next
     50          void SampleApp_Init( uint8 task_id )
   \                     SampleApp_Init:
     51          { 
   \   000000   74F7         MOV     A,#-0x9
   \   000002   12....       LCALL   ?BANKED_ENTER_XDATA
   \   000005                ; Saved register size: 9
   \   000005                ; Auto size: 0
   \   000005   E9           MOV     A,R1
   \   000006   FE           MOV     R6,A
     52            P0SEL &= 0x7f;                  //P0_7配置成通用io
   \   000007   53F37F       ANL     0xf3,#0x7f
     53            
     54            SampleApp_P2P_DstAddr.addrMode = (afAddrMode_t)Addr16Bit;
   \   00000A   90....       MOV     DPTR,#SampleApp_P2P_DstAddr + 8
   \   00000D   7402         MOV     A,#0x2
   \   00000F   F0           MOVX    @DPTR,A
     55            SampleApp_P2P_DstAddr.endPoint = SAMPLEAPP_ENDPOINT;
   \   000010   A3           INC     DPTR
   \   000011   7414         MOV     A,#0x14
   \   000013   F0           MOVX    @DPTR,A
     56            SampleApp_P2P_DstAddr.addr.shortAddr = 0x0000;
   \   000014   90....       MOV     DPTR,#SampleApp_P2P_DstAddr
   \   000017   E4           CLR     A
   \   000018   F0           MOVX    @DPTR,A
   \   000019   A3           INC     DPTR
   \   00001A   F0           MOVX    @DPTR,A
     57            
     58            SampleApp_TaskID = task_id;
   \   00001B   EE           MOV     A,R6
   \   00001C   90....       MOV     DPTR,#SampleApp_TaskID
   \   00001F   F0           MOVX    @DPTR,A
     59            SampleApp_NwkState = DEV_INIT;
   \   000020   90....       MOV     DPTR,#SampleApp_NwkState
   \   000023   7401         MOV     A,#0x1
   \   000025   F0           MOVX    @DPTR,A
     60            SampleApp_TransID = 0;
   \   000026   90....       MOV     DPTR,#SampleApp_TransID
   \   000029   E4           CLR     A
   \   00002A   F0           MOVX    @DPTR,A
     61            SampleApp_epDesc.endPoint = SAMPLEAPP_ENDPOINT;
   \   00002B   90....       MOV     DPTR,#SampleApp_epDesc
   \   00002E   7414         MOV     A,#0x14
   \   000030   F0           MOVX    @DPTR,A
     62            SampleApp_epDesc.task_id = &SampleApp_TaskID;
   \   000031   A3           INC     DPTR
   \   000032   74..         MOV     A,#SampleApp_TaskID & 0xff
   \   000034   F0           MOVX    @DPTR,A
   \   000035   A3           INC     DPTR
   \   000036   74..         MOV     A,#(SampleApp_TaskID >> 8) & 0xff
   \   000038   F0           MOVX    @DPTR,A
     63            SampleApp_epDesc.simpleDesc
     64                      = (SimpleDescriptionFormat_t *)&SampleApp_SimpleDesc;
   \   000039   A3           INC     DPTR
   \   00003A   74..         MOV     A,#SampleApp_SimpleDesc & 0xff
   \   00003C   F0           MOVX    @DPTR,A
   \   00003D   A3           INC     DPTR
   \   00003E   74..         MOV     A,#(SampleApp_SimpleDesc >> 8) & 0xff
   \   000040   F0           MOVX    @DPTR,A
     65            SampleApp_epDesc.latencyReq = noLatencyReqs;
   \   000041   A3           INC     DPTR
   \   000042   E4           CLR     A
   \   000043   F0           MOVX    @DPTR,A
     66            
     67            afRegister( &SampleApp_epDesc );
   \   000044                ; Setup parameters for call to function afRegister
   \   000044   7A..         MOV     R2,#SampleApp_epDesc & 0xff
   \   000046   7B..         MOV     R3,#(SampleApp_epDesc >> 8) & 0xff
   \   000048   12....       LCALL   ??afRegister?relay
     68          }
   \   00004B   7F01         MOV     R7,#0x1
   \   00004D   02....       LJMP    ?BANKED_LEAVE_XDATA
   \   000050                REQUIRE P0SEL
     69          

   \                                 In  segment BANKED_CODE, align 1, keep-with-next
     70          uint16 SampleApp_ProcessEvent( uint8 task_id, uint16 events )
   \                     SampleApp_ProcessEvent:
     71          {
   \   000000   74F4         MOV     A,#-0xc
   \   000002   12....       LCALL   ?BANKED_ENTER_XDATA
   \   000005                ; Saved register size: 12
   \   000005                ; Auto size: 0
   \   000005   8A..         MOV     ?V0 + 0,R2
   \   000007   8B..         MOV     ?V0 + 1,R3
     72            afIncomingMSGPacket_t *MSGpkt;
     73          
     74            if ( events & SYS_EVENT_MSG )
   \   000009   EB           MOV     A,R3
   \   00000A   5480         ANL     A,#0x80
   \   00000C   6036         JZ      ??SampleApp_ProcessEvent_0
     75            {
     76              MSGpkt = (afIncomingMSGPacket_t *)osal_msg_receive( SampleApp_TaskID );
   \   00000E                ; Setup parameters for call to function osal_msg_receive
   \   00000E   8017         SJMP    ??SampleApp_ProcessEvent_1
     77              while ( MSGpkt )
     78              {
     79                switch ( MSGpkt->hdr.event )
   \                     ??SampleApp_ProcessEvent_2:
   \   000010   8E82         MOV     DPL,R6
   \   000012   8F83         MOV     DPH,R7
   \   000014   E0           MOVX    A,@DPTR
   \   000015   641A         XRL     A,#0x1a
   \   000017   7007         JNZ     ??SampleApp_ProcessEvent_3
     80                {
     81                  case AF_INCOMING_MSG_CMD:
     82                    SampleApp_MessageMSGCB( MSGpkt );
   \   000019                ; Setup parameters for call to function SampleApp_MessageMSGCB
   \   000019   EE           MOV     A,R6
   \   00001A   FA           MOV     R2,A
   \   00001B   EF           MOV     A,R7
   \   00001C   FB           MOV     R3,A
   \   00001D   12....       LCALL   ??SampleApp_MessageMSGCB?relay
     83                    break;
     84                    
     85                  default:
     86                  break;
     87                }
     88                osal_msg_deallocate( (uint8 *)MSGpkt );
   \                     ??SampleApp_ProcessEvent_3:
   \   000020                ; Setup parameters for call to function osal_msg_deallocate
   \   000020   EE           MOV     A,R6
   \   000021   FA           MOV     R2,A
   \   000022   EF           MOV     A,R7
   \   000023   FB           MOV     R3,A
   \   000024   12....       LCALL   ??osal_msg_deallocate?relay
     89                MSGpkt = (afIncomingMSGPacket_t *)osal_msg_receive( SampleApp_TaskID );
   \   000027                ; Setup parameters for call to function osal_msg_receive
   \                     ??SampleApp_ProcessEvent_1:
   \   000027   90....       MOV     DPTR,#SampleApp_TaskID
   \   00002A   E0           MOVX    A,@DPTR
   \   00002B   F9           MOV     R1,A
   \   00002C   12....       LCALL   ??osal_msg_receive?relay
   \   00002F   8A..         MOV     ?V0 + 2,R2
   \   000031   8B..         MOV     ?V0 + 3,R3
   \   000033   AE..         MOV     R6,?V0 + 2
   \   000035   AF..         MOV     R7,?V0 + 3
     90              }
   \   000037   EE           MOV     A,R6
   \   000038   4F           ORL     A,R7
   \   000039   70D5         JNZ     ??SampleApp_ProcessEvent_2
     91              return (events ^ SYS_EVENT_MSG);
   \   00003B   AA..         MOV     R2,?V0 + 0
   \   00003D   E5..         MOV     A,?V0 + 1
   \   00003F   6480         XRL     A,#0x80
   \   000041   FB           MOV     R3,A
   \   000042   8004         SJMP    ??SampleApp_ProcessEvent_4
     92            }
     93            return 0;
   \                     ??SampleApp_ProcessEvent_0:
   \   000044   7A00         MOV     R2,#0x0
   \   000046   7B00         MOV     R3,#0x0
   \                     ??SampleApp_ProcessEvent_4:
   \   000048                REQUIRE ?Subroutine0
   \   000048                ; // Fall through to label ?Subroutine0
     94          }

   \                                 In  segment BANKED_CODE, align 1, keep-with-next
   \                     ?Subroutine0:
   \   000000   7F04         MOV     R7,#0x4
   \   000002   02....       LJMP    ?BANKED_LEAVE_XDATA
     95          

   \                                 In  segment BANKED_CODE, align 1, keep-with-next
     96          void SampleApp_MessageMSGCB( afIncomingMSGPacket_t *pkt )
   \                     SampleApp_MessageMSGCB:
     97          {
   \   000000   74F5         MOV     A,#-0xb
   \   000002   12....       LCALL   ?BANKED_ENTER_XDATA
   \   000005                ; Saved register size: 11
   \   000005                ; Auto size: 20
   \   000005   74EC         MOV     A,#-0x14
   \   000007   12....       LCALL   ?ALLOC_XSTACK8
     98            RFDATA rfdata;
     99            switch ( pkt->clusterId )
   \   00000A   8A82         MOV     DPL,R2
   \   00000C   8B83         MOV     DPH,R3
   \   00000E   A3           INC     DPTR
   \   00000F   A3           INC     DPTR
   \   000010   A3           INC     DPTR
   \   000011   A3           INC     DPTR
   \   000012   E0           MOVX    A,@DPTR
   \   000013   6401         XRL     A,#0x1
   \   000015   7002         JNZ     ??SampleApp_MessageMSGCB_0
   \   000017   A3           INC     DPTR
   \   000018   E0           MOVX    A,@DPTR
   \                     ??SampleApp_MessageMSGCB_0:
   \   000019   7063         JNZ     ??SampleApp_MessageMSGCB_1
    100            {
    101              case SAMPLEAPP_PERIODIC_CLUSTERID:
    102                osal_memcpy(rfdata.RFbuf, pkt->cmd.Data, 20);
   \   00001B                ; Setup parameters for call to function osal_memcpy
   \   00001B   EA           MOV     A,R2
   \   00001C   2421         ADD     A,#0x21
   \   00001E   F582         MOV     DPL,A
   \   000020   EB           MOV     A,R3
   \   000021   3400         ADDC    A,#0x0
   \   000023   F583         MOV     DPH,A
   \   000025   E0           MOVX    A,@DPTR
   \   000026   F5..         MOV     ?V0 + 0,A
   \   000028   A3           INC     DPTR
   \   000029   E0           MOVX    A,@DPTR
   \   00002A   F5..         MOV     ?V0 + 1,A
   \   00002C   75..00       MOV     ?V0 + 2,#0x0
   \   00002F   78..         MOV     R0,#?V0 + 0
   \   000031   12....       LCALL   ?PUSH_XSTACK_I_THREE
   \   000034   7C14         MOV     R4,#0x14
   \   000036   7D00         MOV     R5,#0x0
   \   000038   7403         MOV     A,#0x3
   \   00003A   12....       LCALL   ?XSTACK_DISP0_8
   \   00003D   12....       LCALL   ?Subroutine2 & 0xFFFF
   \                     ??CrossCallReturnLabel_0:
   \   000040   12....       LCALL   ?DEALLOC_XSTACK8
    103                if(rfdata.rfbuf.Head == '&'&&rfdata.rfbuf.Nop1 == 'C'&&rfdata.rfbuf.Nop2 == 'J'&&rfdata.rfbuf.Nop3 == 'S'&&rfdata.rfbuf.Tail == 'J')
   \   000043   85..82       MOV     DPL,?XSP + 0
   \   000046   85..83       MOV     DPH,?XSP + 1
   \   000049   E0           MOVX    A,@DPTR
   \   00004A   6426         XRL     A,#0x26
   \   00004C   702D         JNZ     ??SampleApp_MessageMSGCB_2
   \   00004E   7409         MOV     A,#0x9
   \   000050   12....       LCALL   ?XSTACK_DISP0_8
   \   000053   E0           MOVX    A,@DPTR
   \   000054   6443         XRL     A,#0x43
   \   000056   7023         JNZ     ??SampleApp_MessageMSGCB_2
   \   000058   740D         MOV     A,#0xd
   \   00005A   12....       LCALL   ?XSTACK_DISP0_8
   \   00005D   E0           MOVX    A,@DPTR
   \   00005E   644A         XRL     A,#0x4a
   \   000060   7019         JNZ     ??SampleApp_MessageMSGCB_2
   \   000062   7411         MOV     A,#0x11
   \   000064   12....       LCALL   ?XSTACK_DISP0_8
   \   000067   E0           MOVX    A,@DPTR
   \   000068   6453         XRL     A,#0x53
   \   00006A   700F         JNZ     ??SampleApp_MessageMSGCB_2
   \   00006C   7413         MOV     A,#0x13
   \   00006E   12....       LCALL   ?XSTACK_DISP0_8
   \   000071   E0           MOVX    A,@DPTR
   \   000072   644A         XRL     A,#0x4a
   \   000074   7005         JNZ     ??SampleApp_MessageMSGCB_2
    104                {
    105                  SampleApp_Send_The_Message();
   \   000076                ; Setup parameters for call to function SampleApp_Send_The_Message
   \   000076   12....       LCALL   ??SampleApp_Send_The_Message?relay
   \   000079   8003         SJMP    ??SampleApp_MessageMSGCB_1
    106                }
    107                else
    108                {
    109                  SampleApp_Send_The_Error_Message();
   \                     ??SampleApp_MessageMSGCB_2:
   \   00007B                ; Setup parameters for call to function SampleApp_Send_The_Error_Message
   \   00007B   12....       LCALL   ??SampleApp_Send_The_Error_Message?relay
    110                }
    111                break;
    112            }
    113          }
   \                     ??SampleApp_MessageMSGCB_1:
   \   00007E                REQUIRE ?Subroutine1
   \   00007E                ; // Fall through to label ?Subroutine1

   \                                 In  segment BANKED_CODE, align 1, keep-with-next
   \                     ?Subroutine1:
   \   000000   7414         MOV     A,#0x14
   \   000002                REQUIRE ??Subroutine3_0
   \   000002                ; // Fall through to label ??Subroutine3_0

   \                                 In  segment BANKED_CODE, align 1, keep-with-next
   \                     ??Subroutine3_0:
   \   000000   12....       LCALL   ?DEALLOC_XSTACK8
   \   000003   7F03         MOV     R7,#0x3
   \   000005   02....       LJMP    ?BANKED_LEAVE_XDATA

   \                                 In  segment BANKED_CODE, align 1, keep-with-next
   \                     ?Subroutine2:
   \   000000   AA82         MOV     R2,DPL
   \   000002   AB83         MOV     R3,DPH
   \   000004   12....       LCALL   ??osal_memcpy?relay
   \   000007   7403         MOV     A,#0x3
   \   000009   22           RET
    114          

   \                                 In  segment BANKED_CODE, align 1, keep-with-next
    115          void SampleApp_Send_The_Message(void)
   \                     SampleApp_Send_The_Message:
    116          {
   \   000000   74F5         MOV     A,#-0xb
   \   000002   12....       LCALL   ?BANKED_ENTER_XDATA
   \   000005                ; Saved register size: 11
   \   000005                ; Auto size: 27
   \   000005   74E5         MOV     A,#-0x1b
   \   000007   12....       LCALL   ?ALLOC_XSTACK8
    117            RFDATA rfdata;
    118            uint8 WD[3], SD[3];
    119            uint8 MQStatus;
    120            
    121            DHT11(SD, WD);
   \   00000A                ; Setup parameters for call to function DHT11
   \   00000A   7404         MOV     A,#0x4
   \   00000C   12....       LCALL   ?XSTACK_DISP0_8
   \   00000F   AC82         MOV     R4,DPL
   \   000011   AD83         MOV     R5,DPH
   \   000013   7401         MOV     A,#0x1
   \   000015   12....       LCALL   ?XSTACK_DISP0_8
   \   000018   AA82         MOV     R2,DPL
   \   00001A   AB83         MOV     R3,DPH
   \   00001C   12....       LCALL   ??DHT11?relay
    122            readMQ(&MQStatus);
   \   00001F                ; Setup parameters for call to function readMQ
   \   00001F   85..82       MOV     DPL,?XSP + 0
   \   000022   85..83       MOV     DPH,?XSP + 1
   \   000025   AA82         MOV     R2,DPL
   \   000027   AB83         MOV     R3,DPH
   \   000029   12....       LCALL   ??readMQ?relay
    123            
    124            rfdata.rfbuf.Head = '#';
   \   00002C   7407         MOV     A,#0x7
   \   00002E   12....       LCALL   ?XSTACK_DISP0_8
   \   000031   7423         MOV     A,#0x23
   \   000033   F0           MOVX    @DPTR,A
    125            To_String(rfdata.rfbuf.IEEEAddr, NLME_GetExtAddr(), 8);  //获取自己的IEEE节点信息
                                                    ^
Warning[Pe167]: argument of type "unsigned char *" is incompatible with
          parameter of type "char *"
   \   000034                ; Setup parameters for call to function To_String
   \   000034                ; Setup parameters for call to function NLME_GetExtAddr
   \   000034   12....       LCALL   ??NLME_GetExtAddr?relay
   \   000037   EA           MOV     A,R2
   \   000038   FC           MOV     R4,A
   \   000039   EB           MOV     A,R3
   \   00003A   FD           MOV     R5,A
   \   00003B   7408         MOV     A,#0x8
   \   00003D   F9           MOV     R1,A
   \   00003E   12....       LCALL   ?XSTACK_DISP0_8
   \   000041   AA82         MOV     R2,DPL
   \   000043   AB83         MOV     R3,DPH
   \   000045   12....       LCALL   ??To_String?relay
    126            rfdata.rfbuf.Nop1 = '#';
   \   000048   7410         MOV     A,#0x10
   \   00004A   12....       LCALL   ?XSTACK_DISP0_8
   \   00004D   7423         MOV     A,#0x23
   \   00004F   F0           MOVX    @DPTR,A
    127            osal_memcpy(rfdata.rfbuf.temperature, WD, 3);
   \   000050                ; Setup parameters for call to function osal_memcpy
   \   000050   7404         MOV     A,#0x4
   \   000052   12....       LCALL   ?XSTACK_DISP0_8
   \   000055   A982         MOV     R1,DPL
   \   000057   AA83         MOV     R2,DPH
   \   000059   89..         MOV     ?V0 + 0,R1
   \   00005B   8A..         MOV     ?V0 + 1,R2
   \   00005D   75..00       MOV     ?V0 + 2,#0x0
   \   000060   78..         MOV     R0,#?V0 + 0
   \   000062   12....       LCALL   ?PUSH_XSTACK_I_THREE
   \   000065   7C03         MOV     R4,#0x3
   \   000067   7D00         MOV     R5,#0x0
   \   000069   7414         MOV     A,#0x14
   \   00006B   12....       LCALL   ?XSTACK_DISP0_8
   \   00006E   12....       LCALL   ?Subroutine2 & 0xFFFF
   \                     ??CrossCallReturnLabel_1:
   \   000071   12....       LCALL   ?DEALLOC_XSTACK8
    128            rfdata.rfbuf.Nop2 = '#';
   \   000074   7414         MOV     A,#0x14
   \   000076   12....       LCALL   ?XSTACK_DISP0_8
   \   000079   7423         MOV     A,#0x23
   \   00007B   F0           MOVX    @DPTR,A
    129            osal_memcpy(rfdata.rfbuf.hummidity, SD, 3);
   \   00007C                ; Setup parameters for call to function osal_memcpy
   \   00007C   7401         MOV     A,#0x1
   \   00007E   12....       LCALL   ?XSTACK_DISP0_8
   \   000081   A982         MOV     R1,DPL
   \   000083   AA83         MOV     R2,DPH
   \   000085   89..         MOV     ?V0 + 0,R1
   \   000087   8A..         MOV     ?V0 + 1,R2
   \   000089   78..         MOV     R0,#?V0 + 0
   \   00008B   12....       LCALL   ?PUSH_XSTACK_I_THREE
   \   00008E   7C03         MOV     R4,#0x3
   \   000090   7D00         MOV     R5,#0x0
   \   000092   7418         MOV     A,#0x18
   \   000094   12....       LCALL   ?XSTACK_DISP0_8
   \   000097   12....       LCALL   ?Subroutine2 & 0xFFFF
   \                     ??CrossCallReturnLabel_2:
   \   00009A   12....       LCALL   ?DEALLOC_XSTACK8
    130            rfdata.rfbuf.Nop3 = '#';
   \   00009D   7418         MOV     A,#0x18
   \   00009F   12....       LCALL   ?XSTACK_DISP0_8
   \   0000A2   7423         MOV     A,#0x23
   \   0000A4   F0           MOVX    @DPTR,A
    131            rfdata.rfbuf.MQstatus = MQStatus;
   \   0000A5   85..82       MOV     DPL,?XSP + 0
   \   0000A8   85..83       MOV     DPH,?XSP + 1
   \   0000AB   E0           MOVX    A,@DPTR
   \   0000AC   C0E0         PUSH    A
   \   0000AE   7419         MOV     A,#0x19
   \   0000B0   12....       LCALL   ?XSTACK_DISP0_8
   \   0000B3   D0E0         POP     A
   \   0000B5   F0           MOVX    @DPTR,A
    132            rfdata.rfbuf.Tail = '*';
   \   0000B6   741A         MOV     A,#0x1a
   \   0000B8   12....       LCALL   ?XSTACK_DISP0_8
   \   0000BB   742A         MOV     A,#0x2a
   \   0000BD   F0           MOVX    @DPTR,A
    133            AF_DataRequest( &SampleApp_P2P_DstAddr, &SampleApp_epDesc, SAMPLEAPP_PERIODIC_CLUSTERID, 20, (uint8 *)&rfdata, &SampleApp_TransID,  
    134                           AF_DISCV_ROUTE, AF_DEFAULT_RADIUS );
   \   0000BE                ; Setup parameters for call to function AF_DataRequest
   \   0000BE   75..1E       MOV     ?V0 + 0,#0x1e
   \   0000C1   78..         MOV     R0,#?V0 + 0
   \   0000C3   12....       LCALL   ?PUSH_XSTACK_I_ONE
   \   0000C6   75....       MOV     ?V0 + 0,#SampleApp_TransID & 0xff
   \   0000C9   75....       MOV     ?V0 + 1,#(SampleApp_TransID >> 8) & 0xff
   \   0000CC   78..         MOV     R0,#?V0 + 0
   \   0000CE   12....       LCALL   ?PUSH_XSTACK_I_TWO
   \   0000D1   740A         MOV     A,#0xa
   \   0000D3   12....       LCALL   ?XSTACK_DISP0_8
   \   0000D6   8582..       MOV     ?V0 + 0,DPL
   \   0000D9   8583..       MOV     ?V0 + 1,DPH
   \   0000DC   78..         MOV     R0,#?V0 + 0
   \   0000DE   12....       LCALL   ?PUSH_XSTACK_I_TWO
   \   0000E1   75..14       MOV     ?V0 + 0,#0x14
   \   0000E4   75..00       MOV     ?V0 + 1,#0x0
   \   0000E7   78..         MOV     R0,#?V0 + 0
   \   0000E9   12....       LCALL   ?PUSH_XSTACK_I_TWO
   \   0000EC   75..01       MOV     ?V0 + 0,#0x1
   \   0000EF   78..         MOV     R0,#?V0 + 0
   \   0000F1   12....       LCALL   ?PUSH_XSTACK_I_TWO
   \   0000F4   7920         MOV     R1,#0x20
   \   0000F6   7C..         MOV     R4,#SampleApp_epDesc & 0xff
   \   0000F8   7D..         MOV     R5,#(SampleApp_epDesc >> 8) & 0xff
   \   0000FA   7A..         MOV     R2,#SampleApp_P2P_DstAddr & 0xff
   \   0000FC   7B..         MOV     R3,#(SampleApp_P2P_DstAddr >> 8) & 0xff
   \   0000FE   12....       LCALL   ??AF_DataRequest?relay
   \   000101   7409         MOV     A,#0x9
   \   000103   12....       LCALL   ?DEALLOC_XSTACK8
    135          }
   \   000106   741B         MOV     A,#0x1b
   \   000108   02....       LJMP    ??Subroutine3_0 & 0xFFFF
    136            

   \                                 In  segment BANKED_CODE, align 1, keep-with-next
    137          void SampleApp_Send_The_Error_Message(void)
   \                     SampleApp_Send_The_Error_Message:
    138          {
   \   000000   74F5         MOV     A,#-0xb
   \   000002   12....       LCALL   ?BANKED_ENTER_XDATA
   \   000005                ; Saved register size: 11
   \   000005                ; Auto size: 20
   \   000005   74EC         MOV     A,#-0x14
   \   000007   12....       LCALL   ?ALLOC_XSTACK8
    139            RFDATA rfdata;
    140            osal_memcpy(rfdata.RFbuf, "can't read the commd", 20);
   \   00000A                ; Setup parameters for call to function osal_memcpy
   \   00000A   75....       MOV     ?V0 + 0,#`?<Constant "can\\'t read the commd">` & 0xff
   \   00000D   75....       MOV     ?V0 + 1,#(`?<Constant "can\\'t read the commd">` >> 8) & 0xff
   \   000010   75..00       MOV     ?V0 + 2,#0x0
   \   000013   78..         MOV     R0,#?V0 + 0
   \   000015   12....       LCALL   ?PUSH_XSTACK_I_THREE
   \   000018   7C14         MOV     R4,#0x14
   \   00001A   7D00         MOV     R5,#0x0
   \   00001C   7403         MOV     A,#0x3
   \   00001E   12....       LCALL   ?XSTACK_DISP0_8
   \   000021   12....       LCALL   ?Subroutine2 & 0xFFFF
   \                     ??CrossCallReturnLabel_3:
   \   000024   12....       LCALL   ?DEALLOC_XSTACK8
    141            AF_DataRequest( &SampleApp_P2P_DstAddr, &SampleApp_epDesc, SAMPLEAPP_PERIODIC_CLUSTERID, 20, (uint8 *)&rfdata, &SampleApp_TransID,  
    142                           AF_DISCV_ROUTE, AF_DEFAULT_RADIUS );
   \   000027                ; Setup parameters for call to function AF_DataRequest
   \   000027   75..1E       MOV     ?V0 + 0,#0x1e
   \   00002A   78..         MOV     R0,#?V0 + 0
   \   00002C   12....       LCALL   ?PUSH_XSTACK_I_ONE
   \   00002F   75....       MOV     ?V0 + 0,#SampleApp_TransID & 0xff
   \   000032   75....       MOV     ?V0 + 1,#(SampleApp_TransID >> 8) & 0xff
   \   000035   78..         MOV     R0,#?V0 + 0
   \   000037   12....       LCALL   ?PUSH_XSTACK_I_TWO
   \   00003A   7403         MOV     A,#0x3
   \   00003C   12....       LCALL   ?XSTACK_DISP0_8
   \   00003F   8582..       MOV     ?V0 + 0,DPL
   \   000042   8583..       MOV     ?V0 + 1,DPH
   \   000045   78..         MOV     R0,#?V0 + 0
   \   000047   12....       LCALL   ?PUSH_XSTACK_I_TWO
   \   00004A   75..14       MOV     ?V0 + 0,#0x14
   \   00004D   75..00       MOV     ?V0 + 1,#0x0
   \   000050   78..         MOV     R0,#?V0 + 0
   \   000052   12....       LCALL   ?PUSH_XSTACK_I_TWO
   \   000055   75..01       MOV     ?V0 + 0,#0x1
   \   000058   78..         MOV     R0,#?V0 + 0
   \   00005A   12....       LCALL   ?PUSH_XSTACK_I_TWO
   \   00005D   7920         MOV     R1,#0x20
   \   00005F   7C..         MOV     R4,#SampleApp_epDesc & 0xff
   \   000061   7D..         MOV     R5,#(SampleApp_epDesc >> 8) & 0xff
   \   000063   7A..         MOV     R2,#SampleApp_P2P_DstAddr & 0xff
   \   000065   7B..         MOV     R3,#(SampleApp_P2P_DstAddr >> 8) & 0xff
   \   000067   12....       LCALL   ??AF_DataRequest?relay
   \   00006A   7409         MOV     A,#0x9
   \   00006C   12....       LCALL   ?DEALLOC_XSTACK8
    143          }
   \   00006F   02....       LJMP    ?Subroutine1 & 0xFFFF
    144            

   \                                 In  segment BANKED_CODE, align 1, keep-with-next
    145          void To_String(uint8 *dest, char *src, uint8 length)
   \                     To_String:
    146          {
   \   000000   74F4         MOV     A,#-0xc
   \   000002   12....       LCALL   ?BANKED_ENTER_XDATA
   \   000005                ; Saved register size: 12
   \   000005                ; Auto size: 0
   \   000005   89..         MOV     ?V0 + 0,R1
    147            uint8 *xad;
    148            uint8 i = 0; 
    149            uint8 ch;
    150            xad = src + length - 1;
                       ^
Warning[Pe513]: a value of type "char *" cannot be assigned to an entity of
          type "unsigned char *"
   \   000007   89..         MOV     ?V0 + 2,R1
   \   000009   EC           MOV     A,R4
   \   00000A   25..         ADD     A,?V0 + 2
   \   00000C   F8           MOV     R0,A
   \   00000D   ED           MOV     A,R5
   \   00000E   3400         ADDC    A,#0x0
   \   000010   F9           MOV     R1,A
   \   000011   E8           MOV     A,R0
   \   000012   24FF         ADD     A,#-0x1
   \   000014   18           DEC     R0
   \   000015   E9           MOV     A,R1
   \   000016   34FF         ADDC    A,#-0x1
   \   000018   F9           MOV     R1,A
    151            for(i = 0; i < length; i++, xad--)
   \   000019   75..00       MOV     ?V0 + 1,#0x0
   \   00001C   8015         SJMP    ??To_String_0
    152            {
    153              ch = (*xad >> 4)&0x0F;
    154              dest[i<<1] = ch + ((ch < 10) ? '0' : '7');
    155              ch = *xad & 0x0F;
    156              dest[(i<<1) + 1] = ch + ((ch < 10) ? '0' : '7');
   \                     ??To_String_1:
   \   00001E   7E37         MOV     R6,#0x37
   \                     ??To_String_2:
   \   000020   EE           MOV     A,R6
   \   000021   25..         ADD     A,?V0 + 2
   \   000023   8C82         MOV     DPL,R4
   \   000025   8D83         MOV     DPH,R5
   \   000027   A3           INC     DPTR
   \   000028   F0           MOVX    @DPTR,A
   \   000029   05..         INC     ?V0 + 1
   \   00002B   E8           MOV     A,R0
   \   00002C   24FF         ADD     A,#-0x1
   \   00002E   18           DEC     R0
   \   00002F   E9           MOV     A,R1
   \   000030   34FF         ADDC    A,#-0x1
   \   000032   F9           MOV     R1,A
   \                     ??To_String_0:
   \   000033   E5..         MOV     A,?V0 + 1
   \   000035   C3           CLR     C
   \   000036   95..         SUBB    A,?V0 + 0
   \   000038   503D         JNC     ??To_String_3
   \   00003A   8882         MOV     DPL,R0
   \   00003C   8983         MOV     DPH,R1
   \   00003E   E0           MOVX    A,@DPTR
   \   00003F   C4           SWAP    A
   \   000040   540F         ANL     A,#0xf
   \   000042   F5..         MOV     ?V0 + 2,A
   \   000044   C3           CLR     C
   \   000045   940A         SUBB    A,#0xa
   \   000047   5004         JNC     ??To_String_4
   \   000049   7E30         MOV     R6,#0x30
   \   00004B   8002         SJMP    ??To_String_5
   \                     ??To_String_4:
   \   00004D   7E37         MOV     R6,#0x37
   \                     ??To_String_5:
   \   00004F   E5..         MOV     A,?V0 + 1
   \   000051   C3           CLR     C
   \   000052   33           RLC     A
   \   000053   FC           MOV     R4,A
   \   000054   E4           CLR     A
   \   000055   33           RLC     A
   \   000056   FD           MOV     R5,A
   \   000057   EA           MOV     A,R2
   \   000058   2C           ADD     A,R4
   \   000059   FC           MOV     R4,A
   \   00005A   EB           MOV     A,R3
   \   00005B   3D           ADDC    A,R5
   \   00005C   FD           MOV     R5,A
   \   00005D   EE           MOV     A,R6
   \   00005E   25..         ADD     A,?V0 + 2
   \   000060   8C82         MOV     DPL,R4
   \   000062   8D83         MOV     DPH,R5
   \   000064   F0           MOVX    @DPTR,A
   \   000065   8882         MOV     DPL,R0
   \   000067   8983         MOV     DPH,R1
   \   000069   E0           MOVX    A,@DPTR
   \   00006A   540F         ANL     A,#0xf
   \   00006C   F5..         MOV     ?V0 + 2,A
   \   00006E   C3           CLR     C
   \   00006F   940A         SUBB    A,#0xa
   \   000071   50AB         JNC     ??To_String_1
   \   000073   7E30         MOV     R6,#0x30
   \   000075   80A9         SJMP    ??To_String_2
    157            }
    158          }
   \                     ??To_String_3:
   \   000077   02....       LJMP    ?Subroutine0 & 0xFFFF

   \                                 In  segment BANK_RELAYS, align 1
   \                     ??SampleApp_Init?relay:
   \   000000   12....       LCALL   ?BDISPATCH
   \   000003   ......       DC24    SampleApp_Init

   \                                 In  segment BANK_RELAYS, align 1
   \                     ??SampleApp_ProcessEvent?relay:
   \   000000   12....       LCALL   ?BDISPATCH
   \   000003   ......       DC24    SampleApp_ProcessEvent

   \                                 In  segment BANK_RELAYS, align 1
   \                     ??SampleApp_MessageMSGCB?relay:
   \   000000   12....       LCALL   ?BDISPATCH
   \   000003   ......       DC24    SampleApp_MessageMSGCB

   \                                 In  segment BANK_RELAYS, align 1
   \                     ??SampleApp_Send_The_Message?relay:
   \   000000   12....       LCALL   ?BDISPATCH
   \   000003   ......       DC24    SampleApp_Send_The_Message

   \                                 In  segment BANK_RELAYS, align 1
   \                     ??SampleApp_Send_The_Error_Message?relay:
   \   000000   12....       LCALL   ?BDISPATCH
   \   000003   ......       DC24    SampleApp_Send_The_Error_Message

   \                                 In  segment BANK_RELAYS, align 1
   \                     ??To_String?relay:
   \   000000   12....       LCALL   ?BDISPATCH
   \   000003   ......       DC24    To_String

   \                                 In  segment XDATA_ROM_C, align 1
   \                     `?<Constant "can\\'t read the commd">`:
   \   000000   63616E27     DB "can't read the commd"
   \            74207265
   \            61642074
   \            68652063
   \            6F6D6D64
   \            00      
    159          
    160          
    161            
    162          
    163            

   Maximum stack usage in bytes:

     Function                       ISTACK PSTACK XSTACK
     --------                       ------ ------ ------
     SampleApp_Init                     0      0      9
       -> afRegister                    0      0     18
     SampleApp_MessageMSGCB             0      0     46
       -> osal_memcpy                   0      0     68
       -> SampleApp_Send_The_Message
                                        0      0     62
       -> SampleApp_Send_The_Error_Message
                                        0      0     62
     SampleApp_ProcessEvent             0      0     12
       -> osal_msg_receive              0      0     24
       -> SampleApp_MessageMSGCB        0      0     24
       -> osal_msg_deallocate           0      0     24
       -> osal_msg_receive              0      0     24
     SampleApp_Send_The_Error_Message
                                        0      0     71
       -> osal_memcpy                   0      0     68
       -> AF_DataRequest                0      0     80
     SampleApp_Send_The_Message         1      0     78
       -> DHT11                         0      0     76
       -> readMQ                        0      0     76
       -> NLME_GetExtAddr               0      0     76
       -> To_String                     0      0     76
       -> osal_memcpy                   0      0     82
       -> osal_memcpy                   0      0     82
       -> AF_DataRequest                0      0     94
     To_String                          1      0     50


   Segment part sizes:

     Function/Label                           Bytes
     --------------                           -----
     P0SEL                                       1
     SampleApp_ClusterList                       2
     SampleApp_SimpleDesc                       12
     SampleApp_epDesc                            6
     SampleApp_TaskID                            1
     SampleApp_TransID                           1
     SampleApp_NwkState                          1
     SampleApp_P2P_DstAddr                      12
     SampleApp_Init                             80
     SampleApp_ProcessEvent                     72
     ?Subroutine0                                5
     SampleApp_MessageMSGCB                    126
     ?Subroutine1                                2
     ??Subroutine3_0                             8
     ?Subroutine2                               10
     SampleApp_Send_The_Message                267
     SampleApp_Send_The_Error_Message
                                               114
     To_String                                 122
     ??SampleApp_Init?relay                      6
     ??SampleApp_ProcessEvent?relay              6
     ??SampleApp_MessageMSGCB?relay              6
     ??SampleApp_Send_The_Message?relay          6
     ??SampleApp_Send_The_Error_Message?relay    6
     ??To_String?relay                           6
     ?<Constant "can\'t read the commd">        21

 
 806 bytes in segment BANKED_CODE
  36 bytes in segment BANK_RELAYS
   1 byte  in segment SFR_AN
  35 bytes in segment XDATA_ROM_C
  21 bytes in segment XDATA_Z
 
 842 bytes of CODE  memory
  35 bytes of CONST memory
   0 bytes of DATA  memory (+ 1 byte shared)
  21 bytes of XDATA memory

Errors: none
Warnings: 4
