///////////////////////////////////////////////////////////////////////////////
//                                                                            /
// IAR C/C++ Compiler V8.10.1.10194/W32 for 8051        17/Apr/2015  19:08:01 /
// Copyright 2004-2011 IAR Systems AB.                                        /
//                                                                            /
//    Core               =  plain                                             /
//    Code model         =  banked                                            /
//    Data model         =  large                                             /
//    Calling convention =  xdata reentrant                                   /
//    Constant location  =  data_rom                                          /
//    Dptr setup         =  1,16                                              /
//    Source file        =  D:\sys\sys\ZStack-CC2530-2.3.0-1.4.0\Projects\zst /
//                          ack\Samples\SampleApp\Source\MQ.c                 /
//    Command line       =  -f D:\sys\sys\ZStack-CC2530-2.3.0-1.4.0\Projects\ /
//                          zstack\Samples\SampleApp\CC2530DB\..\..\..\Tools\ /
//                          CC2530DB\f8wEndev.cfg (-DCPU32MHZ                 /
//                          -DROOT=__near_func -DBLINK_LEDS) -f               /
//                          D:\sys\sys\ZStack-CC2530-2.3.0-1.4.0\Projects\zst /
//                          ack\Samples\SampleApp\CC2530DB\..\..\..\Tools\CC2 /
//                          530DB\f8wConfig.cfg (-DSECURE=0                   /
//                          -DZG_SECURE_DYNAMIC=0 -DREFLECTOR                 /
//                          -DDEFAULT_CHANLIST=0x00000800                     /
//                          -DZDAPP_CONFIG_PAN_ID=0xFFF1                      /
//                          -DNWK_START_DELAY=100 -DEXTENDED_JOINING_RANDOM_M /
//                          ASK=0x007F -DBEACON_REQUEST_DELAY=100             /
//                          -DBEACON_REQ_DELAY_MASK=0x00FF                    /
//                          -DROUTE_EXPIRY_TIME=30 -DAPSC_ACK_WAIT_DURATION_P /
//                          OLLED=3000 -DNWK_INDIRECT_MSG_TIMEOUT=7           /
//                          -DMAX_RREQ_ENTRIES=8 -DAPSC_MAX_FRAME_RETRIES=3   /
//                          -DNWK_MAX_DATA_RETRIES=2                          /
//                          -DMAX_POLL_FAILURE_RETRIES=2 -DMAX_BCAST=9        /
//                          -DAPS_MAX_GROUPS=16 -DMAX_RTG_ENTRIES=40          /
//                          -DNWK_MAX_BINDING_ENTRIES=4                       /
//                          -DMAX_BINDING_CLUSTER_IDS=4                       /
//                          "-DDEFAULT_KEY={0x01, 0x03, 0x05, 0x07, 0x09,     /
//                          0x0B, 0x0D, 0x0F, 0x00, 0x02, 0x04, 0x06, 0x08,   /
//                          0x0A, 0x0C, 0x0D}" -DMAC_MAX_FRAME_SIZE=116       /
//                          "-DCONST=const __code" -DGENERIC=__generic        /
//                          -DRFD_RCVC_ALWAYS_ON=FALSE -DPOLL_RATE=1000       /
//                          -DQUEUED_POLL_RATE=100 -DRESPONSE_POLL_RATE=100)  /
//                          -DREJOIN_POLL_RATE=440 D:\sys\sys\ZStack-CC2530-2 /
//                          .3.0-1.4.0\Projects\zstack\Samples\SampleApp\Sour /
//                          ce\MQ.c -D ZIGBEEPRO -D NWK_AUTO_POLL -D          /
//                          ZTOOL_P1 -D xMT_TASK -D xMT_SYS_FUNC -D           /
//                          xMT_ZDO_FUNC -lC D:\sys\sys\ZStack-CC2530-2.3.0-1 /
//                          .4.0\Projects\zstack\Samples\SampleApp\CC2530DB\E /
//                          ndDeviceEB-Pro\List\ -lA                          /
//                          D:\sys\sys\ZStack-CC2530-2.3.0-1.4.0\Projects\zst /
//                          ack\Samples\SampleApp\CC2530DB\EndDeviceEB-Pro\Li /
//                          st\ --diag_suppress Pe001,Pa010 -o                /
//                          D:\sys\sys\ZStack-CC2530-2.3.0-1.4.0\Projects\zst /
//                          ack\Samples\SampleApp\CC2530DB\EndDeviceEB-Pro\Ob /
//                          j\ -e --debug --core=plain --dptr=16,1            /
//                          --data_model=large --code_model=banked            /
//                          --calling_convention=xdata_reentrant              /
//                          --place_constants=data_rom --nr_virtual_regs 16   /
//                          -I D:\sys\sys\ZStack-CC2530-2.3.0-1.4.0\Projects\ /
//                          zstack\Samples\SampleApp\CC2530DB\ -I             /
//                          D:\sys\sys\ZStack-CC2530-2.3.0-1.4.0\Projects\zst /
//                          ack\Samples\SampleApp\CC2530DB\..\SOURCE\ -I      /
//                          D:\sys\sys\ZStack-CC2530-2.3.0-1.4.0\Projects\zst /
//                          ack\Samples\SampleApp\CC2530DB\..\..\..\ZMAIN\TI2 /
//                          530DB\ -I D:\sys\sys\ZStack-CC2530-2.3.0-1.4.0\Pr /
//                          ojects\zstack\Samples\SampleApp\CC2530DB\..\..\.. /
//                          \..\..\COMPONENTS\MT\ -I                          /
//                          D:\sys\sys\ZStack-CC2530-2.3.0-1.4.0\Projects\zst /
//                          ack\Samples\SampleApp\CC2530DB\..\..\..\..\..\COM /
//                          PONENTS\HAL\INCLUDE\ -I                           /
//                          D:\sys\sys\ZStack-CC2530-2.3.0-1.4.0\Projects\zst /
//                          ack\Samples\SampleApp\CC2530DB\..\..\..\..\..\COM /
//                          PONENTS\HAL\TARGET\CC2530EB\ -I                   /
//                          D:\sys\sys\ZStack-CC2530-2.3.0-1.4.0\Projects\zst /
//                          ack\Samples\SampleApp\CC2530DB\..\..\..\..\..\COM /
//                          PONENTS\OSAL\MCU\CCSOC\ -I                        /
//                          D:\sys\sys\ZStack-CC2530-2.3.0-1.4.0\Projects\zst /
//                          ack\Samples\SampleApp\CC2530DB\..\..\..\..\..\COM /
//                          PONENTS\OSAL\INCLUDE\ -I                          /
//                          D:\sys\sys\ZStack-CC2530-2.3.0-1.4.0\Projects\zst /
//                          ack\Samples\SampleApp\CC2530DB\..\..\..\..\..\COM /
//                          PONENTS\STACK\AF\ -I D:\sys\sys\ZStack-CC2530-2.3 /
//                          .0-1.4.0\Projects\zstack\Samples\SampleApp\CC2530 /
//                          DB\..\..\..\..\..\COMPONENTS\STACK\NWK\ -I        /
//                          D:\sys\sys\ZStack-CC2530-2.3.0-1.4.0\Projects\zst /
//                          ack\Samples\SampleApp\CC2530DB\..\..\..\..\..\COM /
//                          PONENTS\STACK\SEC\ -I D:\sys\sys\ZStack-CC2530-2. /
//                          3.0-1.4.0\Projects\zstack\Samples\SampleApp\CC253 /
//                          0DB\..\..\..\..\..\COMPONENTS\STACK\SAPI\ -I      /
//                          D:\sys\sys\ZStack-CC2530-2.3.0-1.4.0\Projects\zst /
//                          ack\Samples\SampleApp\CC2530DB\..\..\..\..\..\COM /
//                          PONENTS\STACK\SYS\ -I D:\sys\sys\ZStack-CC2530-2. /
//                          3.0-1.4.0\Projects\zstack\Samples\SampleApp\CC253 /
//                          0DB\..\..\..\..\..\COMPONENTS\STACK\ZDO\ -I       /
//                          D:\sys\sys\ZStack-CC2530-2.3.0-1.4.0\Projects\zst /
//                          ack\Samples\SampleApp\CC2530DB\..\..\..\..\..\COM /
//                          PONENTS\ZMAC\F8W\ -I D:\sys\sys\ZStack-CC2530-2.3 /
//                          .0-1.4.0\Projects\zstack\Samples\SampleApp\CC2530 /
//                          DB\..\..\..\..\..\COMPONENTS\ZMAC\ -I             /
//                          D:\sys\sys\ZStack-CC2530-2.3.0-1.4.0\Projects\zst /
//                          ack\Samples\SampleApp\CC2530DB\..\..\..\..\..\COM /
//                          PONENTS\SERVICES\SADDR\ -I                        /
//                          D:\sys\sys\ZStack-CC2530-2.3.0-1.4.0\Projects\zst /
//                          ack\Samples\SampleApp\CC2530DB\..\..\..\..\..\COM /
//                          PONENTS\SERVICES\SDATA\ -I                        /
//                          D:\sys\sys\ZStack-CC2530-2.3.0-1.4.0\Projects\zst /
//                          ack\Samples\SampleApp\CC2530DB\..\..\..\..\..\COM /
//                          PONENTS\MAC\INCLUDE\ -I                           /
//                          D:\sys\sys\ZStack-CC2530-2.3.0-1.4.0\Projects\zst /
//                          ack\Samples\SampleApp\CC2530DB\..\..\..\..\..\COM /
//                          PONENTS\MAC\HIGH_LEVEL\ -I                        /
//                          D:\sys\sys\ZStack-CC2530-2.3.0-1.4.0\Projects\zst /
//                          ack\Samples\SampleApp\CC2530DB\..\..\..\..\..\COM /
//                          PONENTS\MAC\LOW_LEVEL\srf04\ -I                   /
//                          D:\sys\sys\ZStack-CC2530-2.3.0-1.4.0\Projects\zst /
//                          ack\Samples\SampleApp\CC2530DB\..\..\..\..\..\COM /
//                          PONENTS\MAC\LOW_LEVEL\srf04\SINGLE_CHIP\ -Ohz     /
//    List file          =  D:\sys\sys\ZStack-CC2530-2.3.0-1.4.0\Projects\zst /
//                          ack\Samples\SampleApp\CC2530DB\EndDeviceEB-Pro\Li /
//                          st\MQ.s51                                         /
//                                                                            /
//                                                                            /
///////////////////////////////////////////////////////////////////////////////

        NAME MQ

        RTMODEL "__SystemLibrary", "CLib"
        RTMODEL "__calling_convention", "xdata_reentrant"
        RTMODEL "__code_model", "banked"
        RTMODEL "__core", "plain"
        RTMODEL "__data_model", "large"
        RTMODEL "__dptr_size", "16"
        RTMODEL "__extended_stack", "disabled"
        RTMODEL "__location_for_constants", "data"
        RTMODEL "__number_of_dptrs", "1"
        RTMODEL "__rt_version", "1"

        RSEG DOVERLAY:DATA:NOROOT(0)
        RSEG IOVERLAY:IDATA:NOROOT(0)
        RSEG ISTACK:IDATA:NOROOT(0)
        RSEG PSTACK:XDATA:NOROOT(0)
        RSEG XSTACK:XDATA:NOROOT(0)

        EXTERN ?BANKED_ENTER_XDATA
        EXTERN ?BANKED_LEAVE_XDATA
        EXTERN ?BDISPATCH
        EXTERN ?BRET

        PUBLIC ??Delay_MS?relay
        FUNCTION ??Delay_MS?relay,0203H
        PUBLIC ??InitGpio?relay
        FUNCTION ??InitGpio?relay,0203H
        PUBLIC ??readMQ?relay
        FUNCTION ??readMQ?relay,0203H
        PUBLIC Delay_MS
        FUNCTION Delay_MS,0203H
        ARGFRAME XSTACK, 9, STACK
        ARGFRAME IOVERLAY, 0, STATIC
        ARGFRAME DOVERLAY, 0, STATIC
        PUBLIC InitGpio
        FUNCTION InitGpio,0203H
        ARGFRAME XSTACK, 9, STACK
        ARGFRAME IOVERLAY, 0, STATIC
        ARGFRAME DOVERLAY, 0, STATIC
        PUBWEAK P0DIR
        PUBWEAK P0SEL
        PUBWEAK P1DIR
        PUBWEAK P1SEL
        PUBWEAK _A_P0
        PUBWEAK _A_P1
        PUBLIC readMQ
        FUNCTION readMQ,021203H
        ARGFRAME XSTACK, 0, STACK
        LOCFRAME XSTACK, 9, STACK
        
        CFI Names cfiNames0
        CFI StackFrame CFA_SP SP IDATA
        CFI StackFrame CFA_PSP16 PSP16 XDATA
        CFI StackFrame CFA_XSP16 XSP16 XDATA
        CFI StaticOverlayFrame CFA_IOVERLAY IOVERLAY
        CFI StaticOverlayFrame CFA_DOVERLAY DOVERLAY
        CFI Resource `PSW.CY`:1, `B.BR0`:1, `B.BR1`:1, `B.BR2`:1, `B.BR3`:1
        CFI Resource `B.BR4`:1, `B.BR5`:1, `B.BR6`:1, `B.BR7`:1, `VB.BR8`:1
        CFI Resource `VB.BR9`:1, `VB.BR10`:1, `VB.BR11`:1, `VB.BR12`:1
        CFI Resource `VB.BR13`:1, `VB.BR14`:1, `VB.BR15`:1, VB:8, B:8, A:8
        CFI Resource PSW:8, DPL0:8, DPH0:8, R0:8, R1:8, R2:8, R3:8, R4:8, R5:8
        CFI Resource R6:8, R7:8, V0:8, V1:8, V2:8, V3:8, V4:8, V5:8, V6:8, V7:8
        CFI Resource V8:8, V9:8, V10:8, V11:8, V12:8, V13:8, V14:8, V15:8, SP:8
        CFI Resource PSPH:8, PSPL:8, PSP16:16, XSPH:8, XSPL:8, XSP16:16
        CFI VirtualResource ?RET:24
        CFI Resource ?BRET_EXT:8
        CFI VirtualResource ?RET_HIGH:8, ?RET_LOW:8
        CFI ResourceParts PSP16 PSPH, PSPL
        CFI ResourceParts XSP16 XSPH, XSPL
        CFI ResourceParts ?RET ?BRET_EXT, ?RET_HIGH, ?RET_LOW
        CFI EndNames cfiNames0
        
        CFI Common cfiCommon0 Using cfiNames0
        CFI CodeAlign 1
        CFI DataAlign -1
        CFI ReturnAddress ?RET CODE
        CFI CFA_DOVERLAY Used
        CFI CFA_IOVERLAY Used
        CFI CFA_SP SP+-3
        CFI CFA_PSP16 PSP16+0
        CFI CFA_XSP16 XSP16+0
        CFI `PSW.CY` SameValue
        CFI `B.BR0` SameValue
        CFI `B.BR1` SameValue
        CFI `B.BR2` SameValue
        CFI `B.BR3` SameValue
        CFI `B.BR4` SameValue
        CFI `B.BR5` SameValue
        CFI `B.BR6` SameValue
        CFI `B.BR7` SameValue
        CFI `VB.BR8` SameValue
        CFI `VB.BR9` SameValue
        CFI `VB.BR10` SameValue
        CFI `VB.BR11` SameValue
        CFI `VB.BR12` SameValue
        CFI `VB.BR13` SameValue
        CFI `VB.BR14` SameValue
        CFI `VB.BR15` SameValue
        CFI VB SameValue
        CFI B Undefined
        CFI A Undefined
        CFI PSW SameValue
        CFI DPL0 SameValue
        CFI DPH0 SameValue
        CFI R0 Undefined
        CFI R1 Undefined
        CFI R2 Undefined
        CFI R3 Undefined
        CFI R4 Undefined
        CFI R5 Undefined
        CFI R6 SameValue
        CFI R7 SameValue
        CFI V0 SameValue
        CFI V1 SameValue
        CFI V2 SameValue
        CFI V3 SameValue
        CFI V4 SameValue
        CFI V5 SameValue
        CFI V6 SameValue
        CFI V7 SameValue
        CFI V8 SameValue
        CFI V9 SameValue
        CFI V10 SameValue
        CFI V11 SameValue
        CFI V12 SameValue
        CFI V13 SameValue
        CFI V14 SameValue
        CFI V15 SameValue
        CFI PSPH Undefined
        CFI PSPL Undefined
        CFI XSPH Undefined
        CFI XSPL Undefined
        CFI ?RET Concat
        CFI ?BRET_EXT Frame(CFA_SP, 3)
        CFI ?RET_HIGH Frame(CFA_SP, 2)
        CFI ?RET_LOW Frame(CFA_SP, 1)
        CFI EndCommon cfiCommon0
        
Delay_MS            SYMBOL "Delay_MS"
??Delay_MS?relay    SYMBOL "?relay", Delay_MS
InitGpio            SYMBOL "InitGpio"
??InitGpio?relay    SYMBOL "?relay", InitGpio
readMQ              SYMBOL "readMQ"
??readMQ?relay      SYMBOL "?relay", readMQ

// D:\sys\sys\ZStack-CC2530-2.3.0-1.4.0\Projects\zstack\Samples\SampleApp\Source\MQ.c
//    1 #include "MQ.h"

        ASEGN SFR_AN:DATA:NOROOT,080H
// union <unnamed> volatile __sfr _A_P0
_A_P0:
        DATA8
        DS 1

        ASEGN SFR_AN:DATA:NOROOT,090H
// union <unnamed> volatile __sfr _A_P1
_A_P1:
        DATA8
        DS 1

        ASEGN SFR_AN:DATA:NOROOT,0f3H
// unsigned char volatile __sfr P0SEL
P0SEL:
        DATA8
        DS 1

        ASEGN SFR_AN:DATA:NOROOT,0f4H
// unsigned char volatile __sfr P1SEL
P1SEL:
        DATA8
        DS 1

        ASEGN SFR_AN:DATA:NOROOT,0fdH
// unsigned char volatile __sfr P0DIR
P0DIR:
        DATA8
        DS 1

        ASEGN SFR_AN:DATA:NOROOT,0feH
// unsigned char volatile __sfr P1DIR
P1DIR:
        DATA8
        DS 1
//    2 

        RSEG BANKED_CODE:CODE:NOROOT(0)
//    3 void Delay_MS(uint msec)
Delay_MS:
        CFI Block cfiBlock0 Using cfiCommon0
        CFI Function Delay_MS
        CODE
//    4 { 
        ; Saved register size: 0
        ; Auto size: 0
//    5     uint i,j;
//    6     
//    7     for (i=0; i<msec; i++)
        MOV     R0,#0x0
        MOV     R1,#0x0
        SJMP    ??Delay_MS_0
//    8         for (j=0; j<535; j++);
??Delay_MS_1:
        MOV     A,R0
        ADD     A,#0x1
        INC     R0
        MOV     A,R1
        ADDC    A,#0x0
        MOV     R1,A
??Delay_MS_0:
        CLR     C
        MOV     A,R0
        SUBB    A,R2
        MOV     A,R1
        SUBB    A,R3
        JC      ??Delay_MS_1
//    9 }
        LJMP    ?BRET
        CFI EndBlock cfiBlock0
//   10 

        RSEG BANKED_CODE:CODE:NOROOT(0)
//   11 void InitGpio(void)
InitGpio:
        CFI Block cfiBlock1 Using cfiCommon0
        CFI Function InitGpio
        CODE
//   12 {
        ; Saved register size: 0
        ; Auto size: 0
//   13   P1SEL &= ~0x01;              //P1.0为普通IO口
        ANL     0xf4,#0xfe
//   14   P1DIR |= 0x01;               //P1.0定义为输出口
        ORL     0xfe,#0x1
//   15   P0SEL &= ~0x20;              //P0.5为普通IO口
        ANL     0xf3,#0xdf
//   16   P0DIR &= ~0x20;              //P0.5定义为输入口
        ANL     0xfd,#0xdf
//   17 }
        LJMP    ?BRET
        CFI EndBlock cfiBlock1
        REQUIRE P1SEL
        REQUIRE P1DIR
        REQUIRE P0SEL
        REQUIRE P0DIR
//   18 

        RSEG BANKED_CODE:CODE:NOROOT(0)
//   19 void readMQ(uchar *mqstatus)
readMQ:
        CFI Block cfiBlock2 Using cfiCommon0
        CFI Function readMQ
        CODE
//   20 {
        FUNCALL readMQ, InitGpio
        LOCFRAME ISTACK, 0, STACK
        LOCFRAME PSTACK, 0, STACK
        LOCFRAME XSTACK, 9, STACK
        LOCFRAME IOVERLAY, 0, STATIC
        LOCFRAME DOVERLAY, 0, STATIC
        ARGFRAME ISTACK, 0, STACK
        ARGFRAME PSTACK, 0, STACK
        ARGFRAME XSTACK, 9, STACK
        ARGFRAME IOVERLAY, 0, STATIC
        ARGFRAME DOVERLAY, 0, STATIC
        FUNCALL readMQ, Delay_MS
        LOCFRAME ISTACK, 0, STACK
        LOCFRAME PSTACK, 0, STACK
        LOCFRAME XSTACK, 9, STACK
        LOCFRAME IOVERLAY, 0, STATIC
        LOCFRAME DOVERLAY, 0, STATIC
        ARGFRAME ISTACK, 0, STACK
        ARGFRAME PSTACK, 0, STACK
        ARGFRAME XSTACK, 9, STACK
        ARGFRAME IOVERLAY, 0, STATIC
        ARGFRAME DOVERLAY, 0, STATIC
        FUNCALL readMQ, Delay_MS
        LOCFRAME ISTACK, 0, STACK
        LOCFRAME PSTACK, 0, STACK
        LOCFRAME XSTACK, 9, STACK
        LOCFRAME IOVERLAY, 0, STATIC
        LOCFRAME DOVERLAY, 0, STATIC
        ARGFRAME ISTACK, 0, STACK
        ARGFRAME PSTACK, 0, STACK
        ARGFRAME XSTACK, 9, STACK
        ARGFRAME IOVERLAY, 0, STATIC
        ARGFRAME DOVERLAY, 0, STATIC
        MOV     A,#-0x9
        LCALL   ?BANKED_ENTER_XDATA
        CFI DPH0 load(1, XDATA, add(CFA_XSP16, literal(-1)))
        CFI DPL0 load(1, XDATA, add(CFA_XSP16, literal(-2)))
        CFI ?BRET_EXT load(1, XDATA, add(CFA_XSP16, literal(-3)))
        CFI ?RET_HIGH load(1, XDATA, add(CFA_XSP16, literal(-4)))
        CFI ?RET_LOW load(1, XDATA, add(CFA_XSP16, literal(-5)))
        CFI R7 load(1, XDATA, add(CFA_XSP16, literal(-6)))
        CFI V0 load(1, XDATA, add(CFA_XSP16, literal(-7)))
        CFI VB load(1, XDATA, add(CFA_XSP16, literal(-8)))
        CFI R6 load(1, XDATA, add(CFA_XSP16, literal(-9)))
        CFI CFA_SP SP+0
        CFI CFA_XSP16 add(XSP16, 9)
        ; Saved register size: 9
        ; Auto size: 0
        MOV     A,R2
        MOV     R6,A
        MOV     A,R3
        MOV     R7,A
//   21   uint i=0;
//   22     
//   23   InitGpio();                   //设置LED灯和MQ2相应的IO口
        ; Setup parameters for call to function InitGpio
        LCALL   ??InitGpio?relay
//   24 
//   25   LED1 = 1;                    //熄灭P1.0口灯 
        SETB    0x90.0
//   26   Delay_MS(100);                //延时一段时间，让传感器多一些时间去感应
        ; Setup parameters for call to function Delay_MS
        MOV     R2,#0x64
        MOV     R3,#0x0
        LCALL   ??Delay_MS?relay
//   27   if(DATA_PIN_YW == 0)            //当浓度高于设定值时 ，执行条件函数        
        MOV     C,0x80.5
        JC      ??readMQ_0
//   28   {
//   29     Delay_MS(10);               //延时抗干扰
        ; Setup parameters for call to function Delay_MS
        MOV     R2,#0xa
        MOV     R3,#0x0
        LCALL   ??Delay_MS?relay
//   30     if(DATA_PIN_YW == 0)         //确定 浓度高于设定值时 ，执行条件函数
        MOV     C,0x80.5
        JC      ??readMQ_0
//   31     {
//   32       for (i=0; i<10; i++)
        MOV     A,#0xa
//   33       {
//   34           LED1 = ~LED1;       //闪烁LED1，提示用户
??readMQ_1:
        SETB    B.0
        MOV     C,0x90.0
        JNB     B.0,??readMQ_2
        CPL     C
??readMQ_2:
        MOV     0x90.0,C
//   35       }
        DEC     A
        JNZ     ??readMQ_1
//   36       *mqstatus = '1';               //返回1表示TURE有警告情况
        MOV     DPL,R6
        MOV     DPH,R7
        MOV     A,#0x31
        MOVX    @DPTR,A
//   37     }
//   38   }
//   39   *mqstatus = '0';              //当浓度正常时返回0表示无警告情况
??readMQ_0:
        MOV     DPL,R6
        MOV     DPH,R7
        MOV     A,#0x30
        MOVX    @DPTR,A
//   40 }
        MOV     R7,#0x1
        LJMP    ?BANKED_LEAVE_XDATA
        CFI EndBlock cfiBlock2
        REQUIRE _A_P1
        REQUIRE _A_P0

        RSEG BANK_RELAYS:CODE:REORDER:NOROOT(0)
??Delay_MS?relay:
        LCALL   ?BDISPATCH
        DATA
        DC24    Delay_MS

        RSEG BANK_RELAYS:CODE:REORDER:NOROOT(0)
??InitGpio?relay:
        LCALL   ?BDISPATCH
        DATA
        DC24    InitGpio

        RSEG BANK_RELAYS:CODE:REORDER:NOROOT(0)
??readMQ?relay:
        LCALL   ?BDISPATCH
        DATA
        DC24    readMQ

        END
// 
// 109 bytes in segment BANKED_CODE
//  18 bytes in segment BANK_RELAYS
//   6 bytes in segment SFR_AN
// 
// 127 bytes of CODE memory
//   0 bytes of DATA memory (+ 6 bytes shared)
//
//Errors: none
//Warnings: none
